target datalayout = "e-m:e-p270:32:32-p271:32:32-p272:64:64-i64:64-i128:128-f80:128-n8:16:32:64-S128"
target triple = "x86_64-pc-linux-gnu"

%"struct.std::_Rb_tree_node_base" = type { i32, ptr, ptr, ptr }

; Function Attrs: mustprogress nounwind uwtable
define internal noundef ptr @_ZNSt8_Rb_treeINSt7__cxx1112basic_stringIcSt11char_traitsIcESaIcEEESt4pairIKS5_ZN22cmGlobalNinjaGenerator15WriteDyndepFileERS7_S9_S9_S9_S9_RKSt6vectorIS5_SaIS5_EES9_SE_SE_S9_S9_RK21cmCxxModuleExportInfoE19AvailableModuleInfoESt10_Select1stISJ_ESt4lessIS5_ESaISJ_EE7_S_leftEPSt18_Rb_tree_node_base(ptr noundef %0) #5 align 2 {
  %2 = alloca ptr, align 8
  store ptr %0, ptr %2, align 8
  %3 = load ptr, ptr %2, align 8
  %4 = getelementptr inbounds %"struct.std::_Rb_tree_node_base", ptr %3, i32 0, i32 2
  %5 = load ptr, ptr %4, align 8
  ret ptr %5
}

; Function Attrs: mustprogress nounwind uwtable
define internal noundef ptr @_ZNSt8_Rb_treeINSt7__cxx1112basic_stringIcSt11char_traitsIcESaIcEEESt4pairIKS5_ZN22cmGlobalNinjaGenerator15WriteDyndepFileERS7_S9_S9_S9_S9_RKSt6vectorIS5_SaIS5_EES9_SE_SE_S9_S9_RK21cmCxxModuleExportInfoE19AvailableModuleInfoESt10_Select1stISJ_ESt4lessIS5_ESaISJ_EE8_S_rightEPSt18_Rb_tree_node_base(ptr noundef %0) #5 align 2 {
  %2 = alloca ptr, align 8
  store ptr %0, ptr %2, align 8
  %3 = load ptr, ptr %2, align 8
  %4 = getelementptr inbounds %"struct.std::_Rb_tree_node_base", ptr %3, i32 0, i32 3
  %5 = load ptr, ptr %4, align 8
  ret ptr %5
}

; Function Attrs: mustprogress uwtable
define internal noundef ptr @_ZNSt8_Rb_treeINSt7__cxx1112basic_stringIcSt11char_traitsIcESaIcEEESt4pairIKS5_ZN22cmGlobalNinjaGenerator15WriteDyndepFileERS7_S9_S9_S9_S9_RKSt6vectorIS5_SaIS5_EES9_SE_SE_S9_S9_RK21cmCxxModuleExportInfoE19AvailableModuleInfoESt10_Select1stISJ_ESt4lessIS5_ESaISJ_EE7_M_copyILb0ENSP_11_Alloc_nodeEEEPSt13_Rb_tree_nodeISJ_ESU_PSt18_Rb_tree_node_baseRT0_(ptr noundef nonnull align 8 dereferenceable(48) %0, ptr noundef %1, ptr noundef %2, ptr noundef nonnull align 8 dereferenceable(8) %3) #4 align 2 personality ptr @__gxx_personality_v0 {
  %5 = alloca ptr, align 8
  %6 = alloca ptr, align 8
  %7 = alloca ptr, align 8
  %8 = alloca ptr, align 8
  %9 = alloca ptr, align 8
  %10 = alloca ptr, align 8
  %11 = alloca i32, align 4
  %12 = alloca ptr, align 8
  store ptr %0, ptr %5, align 8
  store ptr %1, ptr %6, align 8
  store ptr %2, ptr %7, align 8
  store ptr %3, ptr %8, align 8
  %13 = load ptr, ptr %5, align 8
  %14 = load ptr, ptr %6, align 8
  %15 = load ptr, ptr %8, align 8
  %16 = call noundef ptr @_ZNSt8_Rb_treeINSt7__cxx1112basic_stringIcSt11char_traitsIcESaIcEEESt4pairIKS5_ZN22cmGlobalNinjaGenerator15WriteDyndepFileERS7_S9_S9_S9_S9_RKSt6vectorIS5_SaIS5_EES9_SE_SE_S9_S9_RK21cmCxxModuleExportInfoE19AvailableModuleInfoESt10_Select1stISJ_ESt4lessIS5_ESaISJ_EE13_M_clone_nodeILb0ENSP_11_Alloc_nodeEEEPSt13_Rb_tree_nodeISJ_ESU_RT0_(ptr noundef nonnull align 8 dereferenceable(48) %13, ptr noundef %14, ptr noundef nonnull align 8 dereferenceable(8) %15)
  store ptr %16, ptr %9, align 8
  %17 = load ptr, ptr %7, align 8
  %18 = load ptr, ptr %9, align 8
  %19 = getelementptr inbounds %"struct.std::_Rb_tree_node_base", ptr %18, i32 0, i32 1
  store ptr %17, ptr %19, align 8
  %20 = load ptr, ptr %6, align 8
  %21 = getelementptr inbounds %"struct.std::_Rb_tree_node_base", ptr %20, i32 0, i32 3
  %22 = load ptr, ptr %21, align 8
  %23 = icmp ne ptr %22, null
  br i1 %23, label %24, label %42

24:                                               ; preds = %4
  %25 = load ptr, ptr %6, align 8
  %26 = call noundef ptr @_ZNSt8_Rb_treeINSt7__cxx1112basic_stringIcSt11char_traitsIcESaIcEEESt4pairIKS5_ZN22cmGlobalNinjaGenerator15WriteDyndepFileERS7_S9_S9_S9_S9_RKSt6vectorIS5_SaIS5_EES9_SE_SE_S9_S9_RK21cmCxxModuleExportInfoE19AvailableModuleInfoESt10_Select1stISJ_ESt4lessIS5_ESaISJ_EE8_S_rightEPSt18_Rb_tree_node_base(ptr noundef %25) #3
  %27 = load ptr, ptr %9, align 8
  %28 = load ptr, ptr %8, align 8
  %29 = invoke noundef ptr @_ZNSt8_Rb_treeINSt7__cxx1112basic_stringIcSt11char_traitsIcESaIcEEESt4pairIKS5_ZN22cmGlobalNinjaGenerator15WriteDyndepFileERS7_S9_S9_S9_S9_RKSt6vectorIS5_SaIS5_EES9_SE_SE_S9_S9_RK21cmCxxModuleExportInfoE19AvailableModuleInfoESt10_Select1stISJ_ESt4lessIS5_ESaISJ_EE7_M_copyILb0ENSP_11_Alloc_nodeEEEPSt13_Rb_tree_nodeISJ_ESU_PSt18_Rb_tree_node_baseRT0_(ptr noundef nonnull align 8 dereferenceable(48) %13, ptr noundef %26, ptr noundef %27, ptr noundef nonnull align 8 dereferenceable(8) %28)
          to label %30 unwind label %33

30:                                               ; preds = %24
  %31 = load ptr, ptr %9, align 8
  %32 = getelementptr inbounds %"struct.std::_Rb_tree_node_base", ptr %31, i32 0, i32 3
  store ptr %29, ptr %32, align 8
  br label %42

33:                                               ; preds = %64, %49, %24
  %34 = landingpad { ptr, i32 }
          catch ptr null
  %35 = extractvalue { ptr, i32 } %34, 0
  store ptr %35, ptr %10, align 8
  %36 = extractvalue { ptr, i32 } %34, 1
  store i32 %36, ptr %11, align 4
  br label %37

37:                                               ; preds = %33
  %38 = load ptr, ptr %10, align 8
  %39 = call ptr @__cxa_begin_catch(ptr %38) #3
  %40 = load ptr, ptr %9, align 8
  invoke void @_ZNSt8_Rb_treeINSt7__cxx1112basic_stringIcSt11char_traitsIcESaIcEEESt4pairIKS5_ZN22cmGlobalNinjaGenerator15WriteDyndepFileERS7_S9_S9_S9_S9_RKSt6vectorIS5_SaIS5_EES9_SE_SE_S9_S9_RK21cmCxxModuleExportInfoE19AvailableModuleInfoESt10_Select1stISJ_ESt4lessIS5_ESaISJ_EE8_M_eraseEPSt13_Rb_tree_nodeISJ_E(ptr noundef nonnull align 8 dereferenceable(48) %13, ptr noundef %40)
          to label %41 unwind label %78

41:                                               ; preds = %37
  invoke void @__cxa_rethrow() #16
          to label %93 unwind label %78

42:                                               ; preds = %30, %4
  %43 = load ptr, ptr %9, align 8
  store ptr %43, ptr %7, align 8
  %44 = load ptr, ptr %6, align 8
  %45 = call noundef ptr @_ZNSt8_Rb_treeINSt7__cxx1112basic_stringIcSt11char_traitsIcESaIcEEESt4pairIKS5_ZN22cmGlobalNinjaGenerator15WriteDyndepFileERS7_S9_S9_S9_S9_RKSt6vectorIS5_SaIS5_EES9_SE_SE_S9_S9_RK21cmCxxModuleExportInfoE19AvailableModuleInfoESt10_Select1stISJ_ESt4lessIS5_ESaISJ_EE7_S_leftEPSt18_Rb_tree_node_base(ptr noundef %44) #3
  store ptr %45, ptr %6, align 8
  br label %46

46:                                               ; preds = %73, %42
  %47 = load ptr, ptr %6, align 8
  %48 = icmp ne ptr %47, null
  br i1 %48, label %49, label %77

49:                                               ; preds = %46
  %50 = load ptr, ptr %6, align 8
  %51 = load ptr, ptr %8, align 8
  %52 = invoke noundef ptr @_ZNSt8_Rb_treeINSt7__cxx1112basic_stringIcSt11char_traitsIcESaIcEEESt4pairIKS5_ZN22cmGlobalNinjaGenerator15WriteDyndepFileERS7_S9_S9_S9_S9_RKSt6vectorIS5_SaIS5_EES9_SE_SE_S9_S9_RK21cmCxxModuleExportInfoE19AvailableModuleInfoESt10_Select1stISJ_ESt4lessIS5_ESaISJ_EE13_M_clone_nodeILb0ENSP_11_Alloc_nodeEEEPSt13_Rb_tree_nodeISJ_ESU_RT0_(ptr noundef nonnull align 8 dereferenceable(48) %13, ptr noundef %50, ptr noundef nonnull align 8 dereferenceable(8) %51)
          to label %53 unwind label %33

53:                                               ; preds = %49
  store ptr %52, ptr %12, align 8
  %54 = load ptr, ptr %12, align 8
  %55 = load ptr, ptr %7, align 8
  %56 = getelementptr inbounds %"struct.std::_Rb_tree_node_base", ptr %55, i32 0, i32 2
  store ptr %54, ptr %56, align 8
  %57 = load ptr, ptr %7, align 8
  %58 = load ptr, ptr %12, align 8
  %59 = getelementptr inbounds %"struct.std::_Rb_tree_node_base", ptr %58, i32 0, i32 1
  store ptr %57, ptr %59, align 8
  %60 = load ptr, ptr %6, align 8
  %61 = getelementptr inbounds %"struct.std::_Rb_tree_node_base", ptr %60, i32 0, i32 3
  %62 = load ptr, ptr %61, align 8
  %63 = icmp ne ptr %62, null
  br i1 %63, label %64, label %73

64:                                               ; preds = %53
  %65 = load ptr, ptr %6, align 8
  %66 = call noundef ptr @_ZNSt8_Rb_treeINSt7__cxx1112basic_stringIcSt11char_traitsIcESaIcEEESt4pairIKS5_ZN22cmGlobalNinjaGenerator15WriteDyndepFileERS7_S9_S9_S9_S9_RKSt6vectorIS5_SaIS5_EES9_SE_SE_S9_S9_RK21cmCxxModuleExportInfoE19AvailableModuleInfoESt10_Select1stISJ_ESt4lessIS5_ESaISJ_EE8_S_rightEPSt18_Rb_tree_node_base(ptr noundef %65) #3
  %67 = load ptr, ptr %12, align 8
  %68 = load ptr, ptr %8, align 8
  %69 = invoke noundef ptr @_ZNSt8_Rb_treeINSt7__cxx1112basic_stringIcSt11char_traitsIcESaIcEEESt4pairIKS5_ZN22cmGlobalNinjaGenerator15WriteDyndepFileERS7_S9_S9_S9_S9_RKSt6vectorIS5_SaIS5_EES9_SE_SE_S9_S9_RK21cmCxxModuleExportInfoE19AvailableModuleInfoESt10_Select1stISJ_ESt4lessIS5_ESaISJ_EE7_M_copyILb0ENSP_11_Alloc_nodeEEEPSt13_Rb_tree_nodeISJ_ESU_PSt18_Rb_tree_node_baseRT0_(ptr noundef nonnull align 8 dereferenceable(48) %13, ptr noundef %66, ptr noundef %67, ptr noundef nonnull align 8 dereferenceable(8) %68)
          to label %70 unwind label %33

70:                                               ; preds = %64
  %71 = load ptr, ptr %12, align 8
  %72 = getelementptr inbounds %"struct.std::_Rb_tree_node_base", ptr %71, i32 0, i32 3
  store ptr %69, ptr %72, align 8
  br label %73

73:                                               ; preds = %70, %53
  %74 = load ptr, ptr %12, align 8
  store ptr %74, ptr %7, align 8
  %75 = load ptr, ptr %6, align 8
  %76 = call noundef ptr @_ZNSt8_Rb_treeINSt7__cxx1112basic_stringIcSt11char_traitsIcESaIcEEESt4pairIKS5_ZN22cmGlobalNinjaGenerator15WriteDyndepFileERS7_S9_S9_S9_S9_RKSt6vectorIS5_SaIS5_EES9_SE_SE_S9_S9_RK21cmCxxModuleExportInfoE19AvailableModuleInfoESt10_Select1stISJ_ESt4lessIS5_ESaISJ_EE7_S_leftEPSt18_Rb_tree_node_base(ptr noundef %75) #3
  store ptr %76, ptr %6, align 8
  br label %46, !llvm.loop !56

77:                                               ; preds = %46
  br label %83

78:                                               ; preds = %41, %37
  %79 = landingpad { ptr, i32 }
          cleanup
  %80 = extractvalue { ptr, i32 } %79, 0
  store ptr %80, ptr %10, align 8
  %81 = extractvalue { ptr, i32 } %79, 1
  store i32 %81, ptr %11, align 4
  invoke void @__cxa_end_catch()
          to label %82 unwind label %90

82:                                               ; preds = %78
  br label %85

83:                                               ; preds = %77
  %84 = load ptr, ptr %9, align 8
  ret ptr %84

85:                                               ; preds = %82
  %86 = load ptr, ptr %10, align 8
  %87 = load i32, ptr %11, align 4
  %88 = insertvalue { ptr, i32 } poison, ptr %86, 0
  %89 = insertvalue { ptr, i32 } %88, i32 %87, 1
  resume { ptr, i32 } %89

90:                                               ; preds = %78
  %91 = landingpad { ptr, i32 }
          catch ptr null
  %92 = extractvalue { ptr, i32 } %91, 0
  call void @__clang_call_terminate(ptr %92) #17
  unreachable

93:                                               ; preds = %41
  unreachable
}