; Function Attrs: mustprogress uwtable
define internal fastcc noundef nonnull ptr @_ZNSt8_Rb_treeINSt7__cxx1112basic_stringIcSt11char_traitsIcESaIcEEESt4pairIKS5_ZN22cmGlobalNinjaGenerator15WriteDyndepFileERS7_S9_S9_S9_S9_RKSt6vectorIS5_SaIS5_EES9_SE_SE_S9_S9_RK21cmCxxModuleExportInfoE19AvailableModuleInfoESt10_Select1stISJ_ESt4lessIS5_ESaISJ_EE7_M_copyILb0ENSP_11_Alloc_nodeEEEPSt13_Rb_tree_nodeISJ_ESU_PSt18_Rb_tree_node_baseRT0_(ptr noundef %0, ptr noundef %1) unnamed_addr #3 align 2 personality ptr @__gxx_personality_v0 {
  %3 = tail call fastcc noundef ptr @_ZNSt8_Rb_treeINSt7__cxx1112basic_stringIcSt11char_traitsIcESaIcEEESt4pairIKS5_ZN22cmGlobalNinjaGenerator15WriteDyndepFileERS7_S9_S9_S9_S9_RKSt6vectorIS5_SaIS5_EES9_SE_SE_S9_S9_RK21cmCxxModuleExportInfoE19AvailableModuleInfoESt10_Select1stISJ_ESt4lessIS5_ESaISJ_EE13_M_clone_nodeILb0ENSP_11_Alloc_nodeEEEPSt13_Rb_tree_nodeISJ_ESU_RT0_(ptr noundef %0)
  %4 = getelementptr inbounds i8, ptr %3, i64 8
  store ptr %1, ptr %4, align 8
  %5 = getelementptr inbounds i8, ptr %0, i64 24
  %6 = load ptr, ptr %5, align 8
  %.not = icmp eq ptr %6, null
  br i1 %.not, label %14, label %7

7:                                                ; preds = %2
  %8 = invoke fastcc noundef ptr @_ZNSt8_Rb_treeINSt7__cxx1112basic_stringIcSt11char_traitsIcESaIcEEESt4pairIKS5_ZN22cmGlobalNinjaGenerator15WriteDyndepFileERS7_S9_S9_S9_S9_RKSt6vectorIS5_SaIS5_EES9_SE_SE_S9_S9_RK21cmCxxModuleExportInfoE19AvailableModuleInfoESt10_Select1stISJ_ESt4lessIS5_ESaISJ_EE7_M_copyILb0ENSP_11_Alloc_nodeEEEPSt13_Rb_tree_nodeISJ_ESU_PSt18_Rb_tree_node_baseRT0_(ptr noundef nonnull %6, ptr noundef nonnull %3)
          to label %9 unwind label %.loopexit.split-lp

9:                                                ; preds = %7
  %10 = getelementptr inbounds i8, ptr %3, i64 24
  store ptr %8, ptr %10, align 8
  br label %14

.loopexit:                                        ; preds = %21, %.lr.ph
  %lpad.loopexit = landingpad { ptr, i32 }
          catch ptr null
  br label %11

.loopexit.split-lp:                               ; preds = %7
  %lpad.loopexit.split-lp = landingpad { ptr, i32 }
          catch ptr null
  br label %11

11:                                               ; preds = %.loopexit.split-lp, %.loopexit
  %lpad.phi = phi { ptr, i32 } [ %lpad.loopexit, %.loopexit ], [ %lpad.loopexit.split-lp, %.loopexit.split-lp ]
  %12 = extractvalue { ptr, i32 } %lpad.phi, 0
  %13 = tail call ptr @__cxa_begin_catch(ptr %12) #23
  tail call fastcc void @_ZNSt8_Rb_treeINSt7__cxx1112basic_stringIcSt11char_traitsIcESaIcEEESt4pairIKS5_ZN22cmGlobalNinjaGenerator15WriteDyndepFileERS7_S9_S9_S9_S9_RKSt6vectorIS5_SaIS5_EES9_SE_SE_S9_S9_RK21cmCxxModuleExportInfoE19AvailableModuleInfoESt10_Select1stISJ_ESt4lessIS5_ESaISJ_EE8_M_eraseEPSt13_Rb_tree_nodeISJ_E(ptr noundef nonnull %3)
  invoke void @__cxa_rethrow() #22
          to label %32 unwind label %26

14:                                               ; preds = %9, %2
  %.0.in35 = getelementptr i8, ptr %0, i64 16
  %.036 = load ptr, ptr %.0.in35, align 8
  %.not3137 = icmp eq ptr %.036, null
  br i1 %.not3137, label %._crit_edge, label %.lr.ph

.lr.ph:                                           ; preds = %14, %25
  %.039 = phi ptr [ %.0, %25 ], [ %.036, %14 ]
  %.03038 = phi ptr [ %15, %25 ], [ %3, %14 ]
  %15 = invoke fastcc noundef ptr @_ZNSt8_Rb_treeINSt7__cxx1112basic_stringIcSt11char_traitsIcESaIcEEESt4pairIKS5_ZN22cmGlobalNinjaGenerator15WriteDyndepFileERS7_S9_S9_S9_S9_RKSt6vectorIS5_SaIS5_EES9_SE_SE_S9_S9_RK21cmCxxModuleExportInfoE19AvailableModuleInfoESt10_Select1stISJ_ESt4lessIS5_ESaISJ_EE13_M_clone_nodeILb0ENSP_11_Alloc_nodeEEEPSt13_Rb_tree_nodeISJ_ESU_RT0_(ptr noundef nonnull %.039)
          to label %16 unwind label %.loopexit

16:                                               ; preds = %.lr.ph
  %17 = getelementptr inbounds i8, ptr %.03038, i64 16
  store ptr %15, ptr %17, align 8
  %18 = getelementptr inbounds i8, ptr %15, i64 8
  store ptr %.03038, ptr %18, align 8
  %19 = getelementptr inbounds i8, ptr %.039, i64 24
  %20 = load ptr, ptr %19, align 8
  %.not32 = icmp eq ptr %20, null
  br i1 %.not32, label %25, label %21

21:                                               ; preds = %16
  %22 = invoke fastcc noundef ptr @_ZNSt8_Rb_treeINSt7__cxx1112basic_stringIcSt11char_traitsIcESaIcEEESt4pairIKS5_ZN22cmGlobalNinjaGenerator15WriteDyndepFileERS7_S9_S9_S9_S9_RKSt6vectorIS5_SaIS5_EES9_SE_SE_S9_S9_RK21cmCxxModuleExportInfoE19AvailableModuleInfoESt10_Select1stISJ_ESt4lessIS5_ESaISJ_EE7_M_copyILb0ENSP_11_Alloc_nodeEEEPSt13_Rb_tree_nodeISJ_ESU_PSt18_Rb_tree_node_baseRT0_(ptr noundef nonnull %20, ptr noundef nonnull %15)
          to label %23 unwind label %.loopexit

23:                                               ; preds = %21
  %24 = getelementptr inbounds i8, ptr %15, i64 24
  store ptr %22, ptr %24, align 8
  br label %25

25:                                               ; preds = %23, %16
  %.0.in = getelementptr i8, ptr %.039, i64 16
  %.0 = load ptr, ptr %.0.in, align 8
  %.not31 = icmp eq ptr %.0, null
  br i1 %.not31, label %._crit_edge, label %.lr.ph, !llvm.loop !1393

26:                                               ; preds = %11
  %27 = landingpad { ptr, i32 }
          cleanup
  invoke void @__cxa_end_catch()
          to label %28 unwind label %29

._crit_edge:                                      ; preds = %25, %14
  ret ptr %3

28:                                               ; preds = %26
  resume { ptr, i32 } %27

29:                                               ; preds = %26
  %30 = landingpad { ptr, i32 }
          catch ptr null
  %31 = extractvalue { ptr, i32 } %30, 0
  tail call void @__clang_call_terminate(ptr %31) #24
  unreachable

32:                                               ; preds = %11
  unreachable
}